; Function Attrs: nofree nounwind memory(read, inaccessiblemem: none) uwtable
define noundef ptr @cli_hashtab_find(ptr noundef readonly %0, ptr noundef readonly %1, i64 noundef %2) local_unnamed_addr #2 {
  %.not = icmp eq ptr %0, null
  br i1 %.not, label %.loopexit, label %4

4:                                                ; preds = %3
  %5 = getelementptr inbounds i8, ptr %0, i64 8
  %6 = load i64, ptr %5, align 8
  %.not.i = icmp eq i64 %2, 0
  br i1 %.not.i, label %hash.exit, label %.lr.ph.i

.lr.ph.i:                                         ; preds = %4, %.lr.ph.i
  %.010.i = phi i64 [ %22, %.lr.ph.i ], [ 0, %4 ]
  %.089.i = phi i32 [ %21, %.lr.ph.i ], [ 1, %4 ]
  %7 = getelementptr inbounds i8, ptr %1, i64 %.010.i
  %8 = load i8, ptr %7, align 1
  %9 = zext i8 %8 to i32
  %10 = add i32 %.089.i, %9
  %11 = xor i32 %10, -1
  %12 = shl i32 %10, 15
  %13 = add i32 %12, %11
  %14 = lshr i32 %13, 12
  %15 = xor i32 %14, %13
  %16 = mul i32 %15, 5
  %17 = lshr i32 %16, 4
  %18 = xor i32 %17, %16
  %19 = mul i32 %18, 2057
  %20 = lshr i32 %19, 16
  %21 = xor i32 %20, %19
  %22 = add nuw i64 %.010.i, 1
  %exitcond.not.i = icmp eq i64 %22, %2
  br i1 %exitcond.not.i, label %._crit_edge.loopexit.i, label %.lr.ph.i

._crit_edge.loopexit.i:                           ; preds = %.lr.ph.i
  %23 = zext i32 %21 to i64
  br label %hash.exit

hash.exit:                                        ; preds = %4, %._crit_edge.loopexit.i
  %.08.lcssa.i = phi i64 [ 1, %4 ], [ %23, %._crit_edge.loopexit.i ]
  %24 = add i64 %6, -1
  %25 = load ptr, ptr %0, align 8
  br label %26

26:                                               ; preds = %38, %hash.exit
  %.023 = phi i64 [ 1, %hash.exit ], [ %39, %38 ]
  %.08.lcssa.i.pn = phi i64 [ %.08.lcssa.i, %hash.exit ], [ %40, %38 ]
  %.0 = and i64 %.08.lcssa.i.pn, %24
  %.024 = getelementptr inbounds %struct.cli_element, ptr %25, i64 %.0
  %27 = load ptr, ptr %.024, align 8
  %.not31 = icmp eq ptr %27, null
  br i1 %.not31, label %.loopexit, label %28

28:                                               ; preds = %26
  %.not32 = icmp eq ptr %27, @DELETED_KEY
  br i1 %.not32, label %38, label %29

29:                                               ; preds = %28
  %30 = getelementptr inbounds i8, ptr %.024, i64 16
  %31 = load i64, ptr %30, align 8
  %32 = icmp eq i64 %31, %2
  br i1 %32, label %33, label %38

33:                                               ; preds = %29
  %34 = icmp eq ptr %27, %1
  br i1 %34, label %.loopexit, label %35

35:                                               ; preds = %33
  %36 = tail call i32 @strncmp(ptr noundef %1, ptr noundef nonnull %27, i64 noundef %2) #19
  %37 = icmp eq i32 %36, 0
  br i1 %37, label %.loopexit, label %38

38:                                               ; preds = %35, %29, %28
  %39 = add i64 %.023, 1
  %40 = add i64 %.0, %.023
  %.not33 = icmp ugt i64 %39, %6
  br i1 %.not33, label %.loopexit, label %26

.loopexit:                                        ; preds = %38, %33, %35, %26, %3
  %.025 = phi ptr [ null, %3 ], [ null, %38 ], [ %.024, %33 ], [ %.024, %35 ], [ null, %26 ]
  ret ptr %.025
}